target datalayout = "e-m:e-p270:32:32-p271:32:32-p272:64:64-i64:64-i128:128-f80:128-n8:16:32:64-S128"
target triple = "x86_64-pc-linux-gnu"

; Function Attrs: nounwind uwtable
define internal i32 @PairInTables(ptr noundef %0, ptr noundef %1, ptr noundef %2) #0 {
  %4 = alloca i32, align 4
  %5 = alloca ptr, align 8
  %6 = alloca ptr, align 8
  %7 = alloca ptr, align 8
  %8 = alloca i32, align 4
  %9 = alloca i32, align 4
  %10 = alloca i32, align 4
  %11 = alloca i32, align 4
  %12 = alloca i32, align 4
  store ptr %0, ptr %5, align 8, !tbaa !8
  store ptr %1, ptr %6, align 8, !tbaa !8
  store ptr %2, ptr %7, align 8, !tbaa !38
  call void @llvm.lifetime.start.p0(i64 4, ptr %8) #5
  call void @llvm.lifetime.start.p0(i64 4, ptr %9) #5
  call void @llvm.lifetime.start.p0(i64 4, ptr %10) #5
  call void @llvm.lifetime.start.p0(i64 4, ptr %11) #5
  store i32 0, ptr %11, align 4, !tbaa !12
  store i32 0, ptr %10, align 4, !tbaa !12
  store i32 0, ptr %9, align 4, !tbaa !12
  store i32 0, ptr %8, align 4, !tbaa !12
  %13 = load ptr, ptr %7, align 8, !tbaa !38
  %14 = load ptr, ptr %5, align 8, !tbaa !8
  %15 = ptrtoint ptr %14 to i64
  %16 = and i64 %15, -2
  %17 = inttoptr i64 %16 to ptr
  %18 = call i32 @st__lookup_int(ptr noundef %13, ptr noundef %17, ptr noundef %8)
  store i32 %18, ptr %10, align 4, !tbaa !12
  %19 = load ptr, ptr %7, align 8, !tbaa !38
  %20 = load ptr, ptr %6, align 8, !tbaa !8
  %21 = ptrtoint ptr %20 to i64
  %22 = and i64 %21, -2
  %23 = inttoptr i64 %22 to ptr
  %24 = call i32 @st__lookup_int(ptr noundef %19, ptr noundef %23, ptr noundef %9)
  store i32 %24, ptr %11, align 4, !tbaa !12
  %25 = load i32, ptr %10, align 4, !tbaa !12
  %26 = icmp ne i32 %25, 0
  br i1 %26, label %31, label %27

27:                                               ; preds = %3
  %28 = load i32, ptr %11, align 4, !tbaa !12
  %29 = icmp ne i32 %28, 0
  br i1 %29, label %31, label %30

30:                                               ; preds = %27
  store i32 0, ptr %4, align 4
  store i32 1, ptr %12, align 4
  br label %83

31:                                               ; preds = %27, %3
  %32 = load i32, ptr %11, align 4, !tbaa !12
  %33 = icmp ne i32 %32, 0
  br i1 %33, label %45, label %34

34:                                               ; preds = %31
  %35 = load i32, ptr %8, align 4, !tbaa !12
  %36 = and i32 %35, 1
  %37 = icmp ne i32 %36, 0
  br i1 %37, label %38, label %39

38:                                               ; preds = %34
  store i32 3, ptr %4, align 4
  store i32 1, ptr %12, align 4
  br label %83

39:                                               ; preds = %34
  %40 = load i32, ptr %8, align 4, !tbaa !12
  %41 = and i32 %40, 2
  %42 = icmp ne i32 %41, 0
  br i1 %42, label %43, label %44

43:                                               ; preds = %39
  store i32 4, ptr %4, align 4
  store i32 1, ptr %12, align 4
  br label %83

44:                                               ; preds = %39
  br label %45

45:                                               ; preds = %44, %31
  %46 = load i32, ptr %10, align 4, !tbaa !12
  %47 = icmp ne i32 %46, 0
  br i1 %47, label %59, label %48

48:                                               ; preds = %45
  %49 = load i32, ptr %9, align 4, !tbaa !12
  %50 = and i32 %49, 1
  %51 = icmp ne i32 %50, 0
  br i1 %51, label %52, label %53

52:                                               ; preds = %48
  store i32 6, ptr %4, align 4
  store i32 1, ptr %12, align 4
  br label %83

53:                                               ; preds = %48
  %54 = load i32, ptr %9, align 4, !tbaa !12
  %55 = and i32 %54, 2
  %56 = icmp ne i32 %55, 0
  br i1 %56, label %57, label %58

57:                                               ; preds = %53
  store i32 5, ptr %4, align 4
  store i32 1, ptr %12, align 4
  br label %83

58:                                               ; preds = %53
  br label %59

59:                                               ; preds = %58, %45
  %60 = load i32, ptr %8, align 4, !tbaa !12
  %61 = and i32 %60, 1
  %62 = icmp ne i32 %61, 0
  br i1 %62, label %63, label %68

63:                                               ; preds = %59
  %64 = load i32, ptr %9, align 4, !tbaa !12
  %65 = and i32 %64, 2
  %66 = icmp ne i32 %65, 0
  br i1 %66, label %67, label %68

67:                                               ; preds = %63
  store i32 1, ptr %4, align 4
  store i32 1, ptr %12, align 4
  br label %83

68:                                               ; preds = %63, %59
  %69 = load i32, ptr %8, align 4, !tbaa !12
  %70 = and i32 %69, 2
  %71 = icmp ne i32 %70, 0
  br i1 %71, label %72, label %77

72:                                               ; preds = %68
  %73 = load i32, ptr %9, align 4, !tbaa !12
  %74 = and i32 %73, 1
  %75 = icmp ne i32 %74, 0
  br i1 %75, label %76, label %77

76:                                               ; preds = %72
  store i32 2, ptr %4, align 4
  store i32 1, ptr %12, align 4
  br label %83

77:                                               ; preds = %72, %68
  %78 = load i32, ptr %8, align 4, !tbaa !12
  %79 = and i32 %78, 1
  %80 = icmp ne i32 %79, 0
  br i1 %80, label %81, label %82

81:                                               ; preds = %77
  store i32 7, ptr %4, align 4
  store i32 1, ptr %12, align 4
  br label %83

82:                                               ; preds = %77
  store i32 8, ptr %4, align 4
  store i32 1, ptr %12, align 4
  br label %83

83:                                               ; preds = %82, %81, %76, %67, %57, %52, %43, %38, %30
  call void @llvm.lifetime.end.p0(i64 4, ptr %11) #5
  call void @llvm.lifetime.end.p0(i64 4, ptr %10) #5
  call void @llvm.lifetime.end.p0(i64 4, ptr %9) #5
  call void @llvm.lifetime.end.p0(i64 4, ptr %8) #5
  %84 = load i32, ptr %4, align 4
  ret i32 %84
}