; Function Attrs: nounwind uwtable
define internal fastcc range(i32 0, 9) i32 @PairInTables(ptr noundef %0, ptr noundef %1, ptr noundef nonnull %2) unnamed_addr #0 {
  %4 = alloca i32, align 4
  %5 = alloca i32, align 4
  call void @llvm.lifetime.start.p0(i64 4, ptr nonnull %4) #8
  call void @llvm.lifetime.start.p0(i64 4, ptr nonnull %5) #8
  store i32 0, ptr %5, align 4, !tbaa !62
  store i32 0, ptr %4, align 4, !tbaa !62
  %6 = ptrtoint ptr %0 to i64
  %7 = and i64 %6, -2
  %8 = inttoptr i64 %7 to ptr
  %9 = call i32 @st__lookup_int(ptr noundef nonnull %2, ptr noundef %8, ptr noundef nonnull %4) #8
  %10 = ptrtoint ptr %1 to i64
  %11 = and i64 %10, -2
  %12 = inttoptr i64 %11 to ptr
  %13 = call i32 @st__lookup_int(ptr noundef nonnull %2, ptr noundef %12, ptr noundef nonnull %5) #8
  %14 = icmp ne i32 %9, 0
  %15 = icmp ne i32 %13, 0
  %or.cond = select i1 %14, i1 true, i1 %15
  br i1 %or.cond, label %16, label %40

16:                                               ; preds = %3
  br i1 %15, label %22, label %17

17:                                               ; preds = %16
  %18 = load i32, ptr %4, align 4, !tbaa !62
  %19 = and i32 %18, 1
  %.not = icmp eq i32 %19, 0
  br i1 %.not, label %20, label %40

20:                                               ; preds = %17
  %21 = and i32 %18, 2
  %.not9 = icmp eq i32 %21, 0
  br i1 %.not9, label %22, label %40

22:                                               ; preds = %20, %16
  br i1 %14, label %28, label %23

23:                                               ; preds = %22
  %24 = load i32, ptr %5, align 4, !tbaa !62
  %25 = and i32 %24, 1
  %.not10 = icmp eq i32 %25, 0
  br i1 %.not10, label %26, label %40

26:                                               ; preds = %23
  %27 = and i32 %24, 2
  %.not11 = icmp eq i32 %27, 0
  br i1 %.not11, label %28, label %40

28:                                               ; preds = %26, %22
  %29 = load i32, ptr %4, align 4, !tbaa !62
  %30 = and i32 %29, 1
  %.not12 = icmp eq i32 %30, 0
  br i1 %.not12, label %34, label %31

31:                                               ; preds = %28
  %32 = load i32, ptr %5, align 4, !tbaa !62
  %33 = and i32 %32, 2
  %.not13 = icmp eq i32 %33, 0
  br i1 %.not13, label %34, label %40

34:                                               ; preds = %31, %28
  %35 = and i32 %29, 2
  %.not14 = icmp eq i32 %35, 0
  br i1 %.not14, label %39, label %36

36:                                               ; preds = %34
  %37 = load i32, ptr %5, align 4, !tbaa !62
  %38 = and i32 %37, 1
  %.not15 = icmp eq i32 %38, 0
  br i1 %.not15, label %39, label %40

39:                                               ; preds = %36, %34
  %. = sub nuw nsw i32 8, %30
  br label %40

40:                                               ; preds = %39, %36, %31, %26, %23, %20, %17, %3
  %.0 = phi i32 [ 0, %3 ], [ 3, %17 ], [ 4, %20 ], [ 6, %23 ], [ 5, %26 ], [ 1, %31 ], [ 2, %36 ], [ %., %39 ]
  call void @llvm.lifetime.end.p0(i64 4, ptr nonnull %5) #8
  call void @llvm.lifetime.end.p0(i64 4, ptr nonnull %4) #8
  ret i32 %.0
}